(lp1
cnumpy.core.multiarray
scalar
p2
(cnumpy
dtype
p3
(S'f4'
I0
I1
tRp4
(I3
S'<'
NNNI-1
I-1
I0
tbS'\x81\xc8\x85A'
tRp5
ag2
(g4
S'm_LA'
tRp6
ag2
(g4
S'\x15z=A'
tRp7
ag2
(g4
S'\xc0\xca3A'
tRp8
ag2
(g4
S'\xcdO$A'
tRp9
ag2
(g4
S'\x11e\x1dA'
tRp10
ag2
(g4
S'ei\x18A'
tRp11
ag2
(g4
S'2\xc2\x13A'
tRp12
ag2
(g4
S'\xcc\x9f\x10A'
tRp13
ag2
(g4
S'h[\x0cA'
tRp14
ag2
(g4
S'5\x17\tA'
tRp15
ag2
(g4
S'-\xc4\x08A'
tRp16
ag2
(g4
S'VU\x05A'
tRp17
ag2
(g4
S'9\xd0\x03A'
tRp18
ag2
(g4
S'\xe1\xb2\x01A'
tRp19
ag2
(g4
S' \xdc\xff@'
tRp20
ag2
(g4
S'C\xe6\xfc@'
tRp21
ag2
(g4
S'\x98\xa5\xfb@'
tRp22
ag2
(g4
S'`\x15\xf9@'
tRp23
ag2
(g4
S'\xf5>\xf7@'
tRp24
ag2
(g4
S'\xe4\xad\xf3@'
tRp25
ag2
(g4
S'[\xcf\xf2@'
tRp26
ag2
(g4
S'\x9fk\xf1@'
tRp27
a.