(lp1
S'/home/fregu856/data/cityscapes/leftImg8bit/train/jena/jena_000002_000019_leftImg8bit.png'
p2
aS'/home/fregu856/data/cityscapes/leftImg8bit/train/jena/jena_000016_000019_leftImg8bit.png'
p3
aS'/home/fregu856/data/cityscapes/leftImg8bit/train/jena/jena_000097_000019_leftImg8bit.png'
p4
aS'/home/fregu856/data/cityscapes/leftImg8bit/train/jena/jena_000024_000019_leftImg8bit.png'
p5
aS'/home/fregu856/data/cityscapes/leftImg8bit/train/jena/jena_000009_000019_leftImg8bit.png'
p6
aS'/home/fregu856/data/cityscapes/leftImg8bit/train/jena/jena_000078_000019_leftImg8bit.png'
p7
aS'/home/fregu856/data/cityscapes/leftImg8bit/train/jena/jena_000104_000019_leftImg8bit.png'
p8
aS'/home/fregu856/data/cityscapes/leftImg8bit/train/jena/jena_000076_000019_leftImg8bit.png'
p9
aS'/home/fregu856/data/cityscapes/leftImg8bit/train/jena/jena_000058_000019_leftImg8bit.png'
p10
aS'/home/fregu856/data/cityscapes/leftImg8bit/train/jena/jena_000023_000019_leftImg8bit.png'
p11
aS'/home/fregu856/data/cityscapes/leftImg8bit/train/jena/jena_000081_000019_leftImg8bit.png'
p12
aS'/home/fregu856/data/cityscapes/leftImg8bit/train/jena/jena_000096_000019_leftImg8bit.png'
p13
aS'/home/fregu856/data/cityscapes/leftImg8bit/train/jena/jena_000003_000019_leftImg8bit.png'
p14
aS'/home/fregu856/data/cityscapes/leftImg8bit/train/jena/jena_000041_000019_leftImg8bit.png'
p15
aS'/home/fregu856/data/cityscapes/leftImg8bit/train/jena/jena_000026_000019_leftImg8bit.png'
p16
aS'/home/fregu856/data/cityscapes/leftImg8bit/train/jena/jena_000118_000019_leftImg8bit.png'
p17
aS'/home/fregu856/data/cityscapes/leftImg8bit/train/jena/jena_000087_000019_leftImg8bit.png'
p18
aS'/home/fregu856/data/cityscapes/leftImg8bit/train/jena/jena_000083_000019_leftImg8bit.png'
p19
aS'/home/fregu856/data/cityscapes/leftImg8bit/train/jena/jena_000025_000019_leftImg8bit.png'
p20
aS'/home/fregu856/data/cityscapes/leftImg8bit/train/jena/jena_000037_000019_leftImg8bit.png'
p21
aS'/home/fregu856/data/cityscapes/leftImg8bit/train/jena/jena_000034_000019_leftImg8bit.png'
p22
aS'/home/fregu856/data/cityscapes/leftImg8bit/train/jena/jena_000062_000019_leftImg8bit.png'
p23
aS'/home/fregu856/data/cityscapes/leftImg8bit/train/jena/jena_000047_000019_leftImg8bit.png'
p24
aS'/home/fregu856/data/cityscapes/leftImg8bit/train/jena/jena_000051_000019_leftImg8bit.png'
p25
aS'/home/fregu856/data/cityscapes/leftImg8bit/train/jena/jena_000115_000019_leftImg8bit.png'
p26
aS'/home/fregu856/data/cityscapes/leftImg8bit/train/jena/jena_000112_000019_leftImg8bit.png'
p27
aS'/home/fregu856/data/cityscapes/leftImg8bit/train/jena/jena_000019_000019_leftImg8bit.png'
p28
aS'/home/fregu856/data/cityscapes/leftImg8bit/train/jena/jena_000073_000019_leftImg8bit.png'
p29
aS'/home/fregu856/data/cityscapes/leftImg8bit/train/jena/jena_000006_000019_leftImg8bit.png'
p30
aS'/home/fregu856/data/cityscapes/leftImg8bit/train/jena/jena_000005_000019_leftImg8bit.png'
p31
aS'/home/fregu856/data/cityscapes/leftImg8bit/train/jena/jena_000033_000019_leftImg8bit.png'
p32
aS'/home/fregu856/data/cityscapes/leftImg8bit/train/jena/jena_000011_000019_leftImg8bit.png'
p33
aS'/home/fregu856/data/cityscapes/leftImg8bit/train/jena/jena_000013_000019_leftImg8bit.png'
p34
aS'/home/fregu856/data/cityscapes/leftImg8bit/train/jena/jena_000117_000019_leftImg8bit.png'
p35
aS'/home/fregu856/data/cityscapes/leftImg8bit/train/jena/jena_000107_000019_leftImg8bit.png'
p36
aS'/home/fregu856/data/cityscapes/leftImg8bit/train/jena/jena_000021_000019_leftImg8bit.png'
p37
aS'/home/fregu856/data/cityscapes/leftImg8bit/train/jena/jena_000098_000019_leftImg8bit.png'
p38
aS'/home/fregu856/data/cityscapes/leftImg8bit/train/jena/jena_000061_000019_leftImg8bit.png'
p39
aS'/home/fregu856/data/cityscapes/leftImg8bit/train/jena/jena_000054_000019_leftImg8bit.png'
p40
aS'/home/fregu856/data/cityscapes/leftImg8bit/train/jena/jena_000010_000019_leftImg8bit.png'
p41
aS'/home/fregu856/data/cityscapes/leftImg8bit/train/jena/jena_000101_000019_leftImg8bit.png'
p42
aS'/home/fregu856/data/cityscapes/leftImg8bit/train/jena/jena_000017_000019_leftImg8bit.png'
p43
aS'/home/fregu856/data/cityscapes/leftImg8bit/train/jena/jena_000030_000019_leftImg8bit.png'
p44
aS'/home/fregu856/data/cityscapes/leftImg8bit/train/jena/jena_000060_000019_leftImg8bit.png'
p45
aS'/home/fregu856/data/cityscapes/leftImg8bit/train/jena/jena_000084_000019_leftImg8bit.png'
p46
aS'/home/fregu856/data/cityscapes/leftImg8bit/train/jena/jena_000105_000019_leftImg8bit.png'
p47
aS'/home/fregu856/data/cityscapes/leftImg8bit/train/jena/jena_000071_000019_leftImg8bit.png'
p48
aS'/home/fregu856/data/cityscapes/leftImg8bit/train/jena/jena_000000_000019_leftImg8bit.png'
p49
aS'/home/fregu856/data/cityscapes/leftImg8bit/train/jena/jena_000099_000019_leftImg8bit.png'
p50
aS'/home/fregu856/data/cityscapes/leftImg8bit/train/jena/jena_000056_000019_leftImg8bit.png'
p51
aS'/home/fregu856/data/cityscapes/leftImg8bit/train/jena/jena_000113_000019_leftImg8bit.png'
p52
aS'/home/fregu856/data/cityscapes/leftImg8bit/train/jena/jena_000092_000019_leftImg8bit.png'
p53
aS'/home/fregu856/data/cityscapes/leftImg8bit/train/jena/jena_000103_000019_leftImg8bit.png'
p54
aS'/home/fregu856/data/cityscapes/leftImg8bit/train/jena/jena_000015_000019_leftImg8bit.png'
p55
aS'/home/fregu856/data/cityscapes/leftImg8bit/train/jena/jena_000114_000019_leftImg8bit.png'
p56
aS'/home/fregu856/data/cityscapes/leftImg8bit/train/jena/jena_000089_000019_leftImg8bit.png'
p57
aS'/home/fregu856/data/cityscapes/leftImg8bit/train/jena/jena_000082_000019_leftImg8bit.png'
p58
aS'/home/fregu856/data/cityscapes/leftImg8bit/train/jena/jena_000100_000019_leftImg8bit.png'
p59
aS'/home/fregu856/data/cityscapes/leftImg8bit/train/jena/jena_000012_000019_leftImg8bit.png'
p60
aS'/home/fregu856/data/cityscapes/leftImg8bit/train/jena/jena_000106_000019_leftImg8bit.png'
p61
aS'/home/fregu856/data/cityscapes/leftImg8bit/train/jena/jena_000046_000019_leftImg8bit.png'
p62
aS'/home/fregu856/data/cityscapes/leftImg8bit/train/jena/jena_000036_000019_leftImg8bit.png'
p63
aS'/home/fregu856/data/cityscapes/leftImg8bit/train/jena/jena_000109_000019_leftImg8bit.png'
p64
aS'/home/fregu856/data/cityscapes/leftImg8bit/train/jena/jena_000043_000019_leftImg8bit.png'
p65
aS'/home/fregu856/data/cityscapes/leftImg8bit/train/jena/jena_000080_000019_leftImg8bit.png'
p66
aS'/home/fregu856/data/cityscapes/leftImg8bit/train/jena/jena_000018_000019_leftImg8bit.png'
p67
aS'/home/fregu856/data/cityscapes/leftImg8bit/train/jena/jena_000074_000019_leftImg8bit.png'
p68
aS'/home/fregu856/data/cityscapes/leftImg8bit/train/jena/jena_000070_000019_leftImg8bit.png'
p69
aS'/home/fregu856/data/cityscapes/leftImg8bit/train/jena/jena_000091_000019_leftImg8bit.png'
p70
aS'/home/fregu856/data/cityscapes/leftImg8bit/train/jena/jena_000039_000019_leftImg8bit.png'
p71
aS'/home/fregu856/data/cityscapes/leftImg8bit/train/jena/jena_000116_000019_leftImg8bit.png'
p72
aS'/home/fregu856/data/cityscapes/leftImg8bit/train/jena/jena_000007_000019_leftImg8bit.png'
p73
aS'/home/fregu856/data/cityscapes/leftImg8bit/train/jena/jena_000102_000019_leftImg8bit.png'
p74
aS'/home/fregu856/data/cityscapes/leftImg8bit/train/jena/jena_000042_000019_leftImg8bit.png'
p75
aS'/home/fregu856/data/cityscapes/leftImg8bit/train/jena/jena_000086_000019_leftImg8bit.png'
p76
aS'/home/fregu856/data/cityscapes/leftImg8bit/train/jena/jena_000108_000019_leftImg8bit.png'
p77
aS'/home/fregu856/data/cityscapes/leftImg8bit/train/jena/jena_000066_000019_leftImg8bit.png'
p78
aS'/home/fregu856/data/cityscapes/leftImg8bit/train/jena/jena_000085_000019_leftImg8bit.png'
p79
aS'/home/fregu856/data/cityscapes/leftImg8bit/train/jena/jena_000063_000019_leftImg8bit.png'
p80
aS'/home/fregu856/data/cityscapes/leftImg8bit/train/jena/jena_000020_000019_leftImg8bit.png'
p81
aS'/home/fregu856/data/cityscapes/leftImg8bit/train/jena/jena_000111_000019_leftImg8bit.png'
p82
aS'/home/fregu856/data/cityscapes/leftImg8bit/train/jena/jena_000008_000019_leftImg8bit.png'
p83
aS'/home/fregu856/data/cityscapes/leftImg8bit/train/jena/jena_000093_000019_leftImg8bit.png'
p84
aS'/home/fregu856/data/cityscapes/leftImg8bit/train/jena/jena_000065_000019_leftImg8bit.png'
p85
aS'/home/fregu856/data/cityscapes/leftImg8bit/train/jena/jena_000045_000019_leftImg8bit.png'
p86
aS'/home/fregu856/data/cityscapes/leftImg8bit/train/jena/jena_000001_000019_leftImg8bit.png'
p87
aS'/home/fregu856/data/cityscapes/leftImg8bit/train/jena/jena_000095_000019_leftImg8bit.png'
p88
aS'/home/fregu856/data/cityscapes/leftImg8bit/train/jena/jena_000057_000019_leftImg8bit.png'
p89
aS'/home/fregu856/data/cityscapes/leftImg8bit/train/jena/jena_000032_000019_leftImg8bit.png'
p90
aS'/home/fregu856/data/cityscapes/leftImg8bit/train/jena/jena_000072_000019_leftImg8bit.png'
p91
aS'/home/fregu856/data/cityscapes/leftImg8bit/train/jena/jena_000064_000019_leftImg8bit.png'
p92
aS'/home/fregu856/data/cityscapes/leftImg8bit/train/jena/jena_000048_000019_leftImg8bit.png'
p93
aS'/home/fregu856/data/cityscapes/leftImg8bit/train/jena/jena_000055_000019_leftImg8bit.png'
p94
aS'/home/fregu856/data/cityscapes/leftImg8bit/train/jena/jena_000028_000019_leftImg8bit.png'
p95
aS'/home/fregu856/data/cityscapes/leftImg8bit/train/jena/jena_000031_000019_leftImg8bit.png'
p96
aS'/home/fregu856/data/cityscapes/leftImg8bit/train/jena/jena_000094_000019_leftImg8bit.png'
p97
aS'/home/fregu856/data/cityscapes/leftImg8bit/train/jena/jena_000027_000019_leftImg8bit.png'
p98
aS'/home/fregu856/data/cityscapes/leftImg8bit/train/jena/jena_000110_000019_leftImg8bit.png'
p99
aS'/home/fregu856/data/cityscapes/leftImg8bit/train/jena/jena_000075_000019_leftImg8bit.png'
p100
aS'/home/fregu856/data/cityscapes/leftImg8bit/train/jena/jena_000053_000019_leftImg8bit.png'
p101
aS'/home/fregu856/data/cityscapes/leftImg8bit/train/jena/jena_000077_000019_leftImg8bit.png'
p102
aS'/home/fregu856/data/cityscapes/leftImg8bit/train/jena/jena_000059_000019_leftImg8bit.png'
p103
aS'/home/fregu856/data/cityscapes/leftImg8bit/train/jena/jena_000014_000019_leftImg8bit.png'
p104
aS'/home/fregu856/data/cityscapes/leftImg8bit/train/jena/jena_000029_000019_leftImg8bit.png'
p105
aS'/home/fregu856/data/cityscapes/leftImg8bit/train/jena/jena_000090_000019_leftImg8bit.png'
p106
aS'/home/fregu856/data/cityscapes/leftImg8bit/train/jena/jena_000035_000019_leftImg8bit.png'
p107
aS'/home/fregu856/data/cityscapes/leftImg8bit/train/jena/jena_000040_000019_leftImg8bit.png'
p108
aS'/home/fregu856/data/cityscapes/leftImg8bit/train/jena/jena_000079_000019_leftImg8bit.png'
p109
aS'/home/fregu856/data/cityscapes/leftImg8bit/train/jena/jena_000052_000019_leftImg8bit.png'
p110
aS'/home/fregu856/data/cityscapes/leftImg8bit/train/jena/jena_000069_000019_leftImg8bit.png'
p111
aS'/home/fregu856/data/cityscapes/leftImg8bit/train/jena/jena_000049_000019_leftImg8bit.png'
p112
aS'/home/fregu856/data/cityscapes/leftImg8bit/train/jena/jena_000038_000019_leftImg8bit.png'
p113
aS'/home/fregu856/data/cityscapes/leftImg8bit/train/jena/jena_000068_000019_leftImg8bit.png'
p114
aS'/home/fregu856/data/cityscapes/leftImg8bit/train/jena/jena_000004_000019_leftImg8bit.png'
p115
aS'/home/fregu856/data/cityscapes/leftImg8bit/train/jena/jena_000088_000019_leftImg8bit.png'
p116
aS'/home/fregu856/data/cityscapes/leftImg8bit/train/jena/jena_000067_000019_leftImg8bit.png'
p117
aS'/home/fregu856/data/cityscapes/leftImg8bit/train/jena/jena_000022_000019_leftImg8bit.png'
p118
aS'/home/fregu856/data/cityscapes/leftImg8bit/train/jena/jena_000050_000019_leftImg8bit.png'
p119
aS'/home/fregu856/data/cityscapes/leftImg8bit/train/jena/jena_000044_000019_leftImg8bit.png'
p120
a.